target datalayout = "e-m:e-p270:32:32-p271:32:32-p272:64:64-i64:64-i128:128-f80:128-n8:16:32:64-S128"
target triple = "x86_64-pc-linux-gnu"

%class.Sample = type { ptr, ptr, ptr, ptr, ptr, i8, float, float, float, float, float, float, float, float, float, float, float, float, float, i32, i8, i8, i8, ptr, [9 x ptr], ptr, %class.SampleDebugDraw }
%class.SampleDebugDraw = type { %class.DebugDrawGL }
%class.DebugDrawGL = type { %struct.duDebugDraw }
%struct.duDebugDraw = type { ptr }
%class.Sample_TempObstacles = type <{ %class.Sample, i8, [7 x i8], ptr, ptr, ptr, ptr, float, i32, i32, i32, i32, i32, i32, i32, float, [4 x i8] }>

; Function Attrs: mustprogress nounwind uwtable
define dso_local void @_ZN20Sample_TempObstaclesD2Ev(ptr noundef nonnull align 8 dereferenceable(276) %0) unnamed_addr #0 align 2 personality ptr @__gxx_personality_v0 {
  %2 = alloca ptr, align 8
  store ptr %0, ptr %2, align 8
  %3 = load ptr, ptr %2, align 8
  store ptr getelementptr inbounds ({ [23 x ptr] }, ptr @_ZTV20Sample_TempObstacles, i32 0, i32 0, i32 2), ptr %3, align 8
  %4 = getelementptr inbounds %class.Sample, ptr %3, i32 0, i32 2
  %5 = load ptr, ptr %4, align 8
  invoke void @_Z13dtFreeNavMeshP9dtNavMesh(ptr noundef %5)
          to label %6 unwind label %11

6:                                                ; preds = %1
  %7 = getelementptr inbounds %class.Sample, ptr %3, i32 0, i32 2
  store ptr null, ptr %7, align 8
  %8 = getelementptr inbounds %class.Sample_TempObstacles, ptr %3, i32 0, i32 6
  %9 = load ptr, ptr %8, align 8
  invoke void @_Z15dtFreeTileCacheP11dtTileCache(ptr noundef %9)
          to label %10 unwind label %11

10:                                               ; preds = %6
  call void @_ZN6SampleD2Ev(ptr noundef nonnull align 8 dereferenceable(200) %3) #10
  ret void

11:                                               ; preds = %6, %1
  %12 = landingpad { ptr, i32 }
          catch ptr null
  %13 = extractvalue { ptr, i32 } %12, 0
  call void @__clang_call_terminate(ptr %13) #12
  unreachable
}